target datalayout = "e-m:e-p270:32:32-p271:32:32-p272:64:64-i64:64-i128:128-f80:128-n8:16:32:64-S128"
target triple = "x86_64-pc-linux-gnu"

%struct.termios = type { i32, i32, i32, i32, i8, [32 x i8], i32, i32 }

@term_fd = internal global i32 -1, align 4
@old_term = internal global %struct.termios zeroinitializer, align 4
@term_fd_needs_closing = internal global i32 0, align 4
@background_resume_msg = internal global ptr null, align 8
@restore_error_msg = internal global ptr null, align 8

; Function Attrs: nounwind uwtable
define internal void @close_term_fd() #0 {
  %1 = load volatile i32, ptr @term_fd_needs_closing, align 4, !tbaa !4
  %2 = icmp ne i32 %1, 0
  br i1 %2, label %3, label %6

3:                                                ; preds = %0
  %4 = load i32, ptr @term_fd, align 4, !tbaa !4
  %5 = call i32 @close(i32 noundef %4)
  br label %6

6:                                                ; preds = %3, %0
  store volatile i32 0, ptr @term_fd_needs_closing, align 4, !tbaa !4
  store i32 -1, ptr @term_fd, align 4, !tbaa !4
  ret void
}

; Function Attrs: nounwind uwtable
define internal void @reset_job_signals() #0 {
  %1 = load ptr, ptr @restore_error_msg, align 8, !tbaa !8
  %2 = icmp ne ptr %1, null
  br i1 %2, label %3, label %7

3:                                                ; preds = %0
  %4 = call ptr @signal(i32 noundef 21, ptr noundef null) #10
  %5 = call ptr @signal(i32 noundef 22, ptr noundef null) #10
  %6 = call ptr @signal(i32 noundef 20, ptr noundef null) #10
  store ptr null, ptr @restore_error_msg, align 8, !tbaa !8
  store ptr null, ptr @background_resume_msg, align 8, !tbaa !8
  br label %7

7:                                                ; preds = %3, %0
  ret void
}

; Function Attrs: nounwind uwtable
define internal i32 @disable_bits(i32 noundef %0, i32 noundef %1) #0 {
  %3 = alloca i32, align 4
  %4 = alloca i32, align 4
  %5 = alloca i32, align 4
  %6 = alloca %struct.termios, align 4
  %7 = alloca i32, align 4
  store i32 %0, ptr %4, align 4, !tbaa !4
  store i32 %1, ptr %5, align 4, !tbaa !4
  call void @llvm.lifetime.start.p0(i64 60, ptr %6) #10
  %8 = load i32, ptr %4, align 4, !tbaa !4
  %9 = call i32 @save_term(i32 noundef %8)
  %10 = icmp slt i32 %9, 0
  br i1 %10, label %11, label %12

11:                                               ; preds = %2
  store i32 -1, ptr %3, align 4
  store i32 1, ptr %7, align 4
  br label %32

12:                                               ; preds = %2
  call void @llvm.memcpy.p0.p0.i64(ptr align 4 %6, ptr align 4 @old_term, i64 60, i1 false), !tbaa.struct !38
  %13 = load i32, ptr %5, align 4, !tbaa !4
  %14 = xor i32 %13, -1
  %15 = getelementptr inbounds nuw %struct.termios, ptr %6, i32 0, i32 3
  %16 = load i32, ptr %15, align 4, !tbaa !39
  %17 = and i32 %16, %14
  store i32 %17, ptr %15, align 4, !tbaa !39
  %18 = load i32, ptr %5, align 4, !tbaa !4
  %19 = and i32 %18, 2
  %20 = icmp ne i32 %19, 0
  br i1 %20, label %21, label %26

21:                                               ; preds = %12
  %22 = getelementptr inbounds nuw %struct.termios, ptr %6, i32 0, i32 5
  %23 = getelementptr inbounds [32 x i8], ptr %22, i64 0, i64 6
  store i8 1, ptr %23, align 1, !tbaa !11
  %24 = getelementptr inbounds nuw %struct.termios, ptr %6, i32 0, i32 5
  %25 = getelementptr inbounds [32 x i8], ptr %24, i64 0, i64 5
  store i8 0, ptr %25, align 1, !tbaa !11
  br label %26

26:                                               ; preds = %21, %12
  %27 = load i32, ptr @term_fd, align 4, !tbaa !4
  %28 = call i32 @tcsetattr(i32 noundef %27, i32 noundef 2, ptr noundef %6) #10
  %29 = icmp ne i32 %28, 0
  br i1 %29, label %31, label %30

30:                                               ; preds = %26
  store i32 0, ptr %3, align 4
  store i32 1, ptr %7, align 4
  br label %32

31:                                               ; preds = %26
  call void @sigchain_pop_common()
  call void @reset_job_signals()
  call void @close_term_fd()
  store i32 -1, ptr %3, align 4
  store i32 1, ptr %7, align 4
  br label %32

32:                                               ; preds = %31, %30, %11
  call void @llvm.lifetime.end.p0(i64 60, ptr %6) #10
  %33 = load i32, ptr %3, align 4
  ret i32 %33
}