; Function Attrs: nounwind uwtable
define internal fastcc range(i32 -1, 1) i32 @disable_bits(i32 noundef range(i32 0, 3) %0, i32 noundef range(i32 8, 11) %1) unnamed_addr #0 {
  %3 = alloca %struct.termios, align 4
  call void @llvm.lifetime.start.p0(i64 60, ptr nonnull %3) #13
  %4 = tail call i32 @save_term(i32 noundef %0)
  %5 = icmp slt i32 %4, 0
  br i1 %5, label %28, label %6

6:                                                ; preds = %2
  call void @llvm.memcpy.p0.p0.i64(ptr noundef nonnull align 4 dereferenceable(60) %3, ptr noundef nonnull align 4 dereferenceable(60) @old_term, i64 60, i1 false), !tbaa.struct !34
  %7 = xor i32 %1, -1
  %8 = getelementptr inbounds nuw i8, ptr %3, i64 12
  %9 = load i32, ptr %8, align 4, !tbaa !35
  %10 = and i32 %9, %7
  store i32 %10, ptr %8, align 4, !tbaa !35
  %11 = and i32 %1, 2
  %.not = icmp eq i32 %11, 0
  br i1 %.not, label %15, label %12

12:                                               ; preds = %6
  %13 = getelementptr inbounds nuw i8, ptr %3, i64 23
  store i8 1, ptr %13, align 1, !tbaa !11
  %14 = getelementptr inbounds nuw i8, ptr %3, i64 22
  store i8 0, ptr %14, align 2, !tbaa !11
  br label %15

15:                                               ; preds = %12, %6
  %16 = load i32, ptr @term_fd, align 4, !tbaa !4
  %17 = call i32 @tcsetattr(i32 noundef %16, i32 noundef 2, ptr noundef nonnull %3) #13
  %.not4 = icmp eq i32 %17, 0
  br i1 %.not4, label %28, label %18

18:                                               ; preds = %15
  call void @sigchain_pop_common() #13
  %19 = load ptr, ptr @restore_error_msg, align 8, !tbaa !8
  %.not.i = icmp eq ptr %19, null
  br i1 %.not.i, label %reset_job_signals.exit, label %20

20:                                               ; preds = %18
  %21 = call ptr @signal(i32 noundef 21, ptr noundef null) #13
  %22 = call ptr @signal(i32 noundef 22, ptr noundef null) #13
  %23 = call ptr @signal(i32 noundef 20, ptr noundef null) #13
  store ptr null, ptr @restore_error_msg, align 8, !tbaa !8
  store ptr null, ptr @background_resume_msg, align 8, !tbaa !8
  br label %reset_job_signals.exit

reset_job_signals.exit:                           ; preds = %18, %20
  %24 = load volatile i32, ptr @term_fd_needs_closing, align 4, !tbaa !4
  %.not.i5 = icmp eq i32 %24, 0
  br i1 %.not.i5, label %close_term_fd.exit, label %25

25:                                               ; preds = %reset_job_signals.exit
  %26 = load i32, ptr @term_fd, align 4, !tbaa !4
  %27 = call i32 @close(i32 noundef %26) #13
  br label %close_term_fd.exit

close_term_fd.exit:                               ; preds = %reset_job_signals.exit, %25
  store volatile i32 0, ptr @term_fd_needs_closing, align 4, !tbaa !4
  store i32 -1, ptr @term_fd, align 4, !tbaa !4
  br label %28

28:                                               ; preds = %15, %2, %close_term_fd.exit
  %.0 = phi i32 [ -1, %close_term_fd.exit ], [ -1, %2 ], [ 0, %15 ]
  call void @llvm.lifetime.end.p0(i64 60, ptr nonnull %3) #13
  ret i32 %.0
}